target datalayout = "e-m:e-p270:32:32-p271:32:32-p272:64:64-i64:64-i128:128-f80:128-n8:16:32:64-S128"
target triple = "x86_64-pc-linux-gnu"

%struct.mi_page_queue_s = type { ptr, ptr, i64 }
%struct.mi_segments_tld_s = type { %struct.mi_segment_queue_s, %struct.mi_segment_queue_s, %struct.mi_page_queue_s, i64, i64, i64, i64, i64, ptr, ptr }
%struct.mi_segment_queue_s = type { ptr, ptr }
%struct.mi_arena_field_cursor_s = type { i64, i64, i64, i64, ptr, i8, i8 }

; Function Attrs: nounwind uwtable
define hidden void @_mi_abandoned_reclaim_all(ptr noundef %0, ptr noundef %1) #0 {
  %3 = alloca ptr, align 8
  %4 = alloca ptr, align 8
  %5 = alloca ptr, align 8
  %6 = alloca %struct.mi_arena_field_cursor_s, align 8
  store ptr %0, ptr %3, align 8, !tbaa !62
  store ptr %1, ptr %4, align 8, !tbaa !28
  call void @llvm.lifetime.start.p0(i64 8, ptr %5) #7
  call void @llvm.lifetime.start.p0(i64 48, ptr %6) #7
  %7 = load ptr, ptr %3, align 8, !tbaa !62
  %8 = load ptr, ptr %4, align 8, !tbaa !28
  %9 = getelementptr inbounds nuw %struct.mi_segments_tld_s, ptr %8, i32 0, i32 8
  %10 = load ptr, ptr %9, align 8, !tbaa !81
  call void @_mi_arena_field_cursor_init(ptr noundef %7, ptr noundef %10, i1 noundef zeroext true, ptr noundef %6) #8
  br label %11

11:                                               ; preds = %14, %2
  %12 = call ptr @_mi_arena_segment_clear_abandoned_next(ptr noundef %6) #8
  store ptr %12, ptr %5, align 8, !tbaa !3
  %13 = icmp ne ptr %12, null
  br i1 %13, label %14, label %19

14:                                               ; preds = %11
  %15 = load ptr, ptr %5, align 8, !tbaa !3
  %16 = load ptr, ptr %3, align 8, !tbaa !62
  %17 = load ptr, ptr %4, align 8, !tbaa !28
  %18 = call ptr @mi_segment_reclaim(ptr noundef %15, ptr noundef %16, i64 noundef 0, ptr noundef null, ptr noundef %17) #8
  br label %11, !llvm.loop !82

19:                                               ; preds = %11
  call void @_mi_arena_field_cursor_done(ptr noundef %6) #8
  call void @llvm.lifetime.end.p0(i64 48, ptr %6) #7
  call void @llvm.lifetime.end.p0(i64 8, ptr %5) #7
  ret void
}